; Function Attrs: nounwind uwtable
define void @lv_subject_set_pointer(ptr noundef %0, ptr noundef %1) local_unnamed_addr #0 {
  %3 = getelementptr inbounds nuw i8, ptr %0, i64 48
  %4 = load i32, ptr %3, align 8
  %5 = and i32 %4, 15
  %.not = icmp eq i32 %5, 3
  br i1 %.not, label %lv_subject_notify_if_changed.exit, label %9

lv_subject_notify_if_changed.exit:                ; preds = %2
  %6 = getelementptr inbounds nuw i8, ptr %0, i64 24
  %7 = load ptr, ptr %6, align 8, !tbaa !3
  %8 = getelementptr inbounds nuw i8, ptr %0, i64 32
  store ptr %7, ptr %8, align 8, !tbaa !3
  store ptr %1, ptr %6, align 8, !tbaa !3
  tail call void @lv_subject_notify(ptr noundef nonnull %0)
  br label %9

9:                                                ; preds = %2, %lv_subject_notify_if_changed.exit
  ret void
}